target datalayout = "e-m:e-p270:32:32-p271:32:32-p272:64:64-i64:64-i128:128-f80:128-n8:16:32:64-S128"
target triple = "x86_64-pc-linux-gnu"

%"class.icu_77::UnicodeString" = type { %"class.icu_77::Replaceable", %"union.icu_77::UnicodeString::StackBufferOrFields" }
%"class.icu_77::Replaceable" = type { %"class.icu_77::UObject" }
%"class.icu_77::UObject" = type { ptr }
%"union.icu_77::UnicodeString::StackBufferOrFields" = type { %struct.anon.0, [32 x i8] }
%struct.anon.0 = type { i16, i32, i32, ptr }

; Function Attrs: mustprogress uwtable
define noundef i32 @_ZNK6icu_7716SimpleDateFormat21matchDayPeriodStringsERKNS_13UnicodeStringEiPS2_iRi(ptr noundef nonnull align 8 dereferenceable(528) %0, ptr noundef nonnull align 8 dereferenceable(64) %1, i32 noundef %2, ptr noundef %3, i32 noundef %4, ptr noundef nonnull align 4 dereferenceable(4) %5) #1 align 2 {
  %7 = alloca i32, align 4
  %8 = alloca ptr, align 8
  %9 = alloca ptr, align 8
  %10 = alloca i32, align 4
  %11 = alloca ptr, align 8
  %12 = alloca i32, align 4
  %13 = alloca ptr, align 8
  %14 = alloca i32, align 4
  %15 = alloca i32, align 4
  %16 = alloca i32, align 4
  %17 = alloca i32, align 4
  %18 = alloca i32, align 4
  store ptr %0, ptr %8, align 8, !tbaa !23
  store ptr %1, ptr %9, align 8, !tbaa !72
  store i32 %2, ptr %10, align 4, !tbaa !14
  store ptr %3, ptr %11, align 8, !tbaa !72
  store i32 %4, ptr %12, align 4, !tbaa !14
  store ptr %5, ptr %13, align 8, !tbaa !20
  call void @llvm.lifetime.start.p0(i64 4, ptr %14) #12
  store i32 0, ptr %14, align 4, !tbaa !14
  call void @llvm.lifetime.start.p0(i64 4, ptr %15) #12
  store i32 -1, ptr %15, align 4, !tbaa !14
  call void @llvm.lifetime.start.p0(i64 4, ptr %16) #12
  store i32 0, ptr %16, align 4, !tbaa !14
  br label %19

19:                                               ; preds = %38, %6
  %20 = load i32, ptr %16, align 4, !tbaa !14
  %21 = load i32, ptr %12, align 4, !tbaa !14
  %22 = icmp slt i32 %20, %21
  br i1 %22, label %24, label %23

23:                                               ; preds = %19
  call void @llvm.lifetime.end.p0(i64 4, ptr %16) #12
  br label %41

24:                                               ; preds = %19
  call void @llvm.lifetime.start.p0(i64 4, ptr %17) #12
  store i32 0, ptr %17, align 4, !tbaa !14
  %25 = load ptr, ptr %9, align 8, !tbaa !72
  %26 = load i32, ptr %10, align 4, !tbaa !14
  %27 = load ptr, ptr %11, align 8, !tbaa !72
  %28 = load i32, ptr %16, align 4, !tbaa !14
  %29 = sext i32 %28 to i64
  %30 = getelementptr inbounds %"class.icu_77::UnicodeString", ptr %27, i64 %29
  %31 = call noundef i32 @_ZN6icu_77L26matchStringWithOptionalDotERKNS_13UnicodeStringEiS2_(ptr noundef nonnull align 8 dereferenceable(64) %25, i32 noundef %26, ptr noundef nonnull align 8 dereferenceable(64) %30)
  store i32 %31, ptr %17, align 4, !tbaa !14
  %32 = load i32, ptr %14, align 4, !tbaa !14
  %33 = icmp sgt i32 %31, %32
  br i1 %33, label %34, label %37

34:                                               ; preds = %24
  %35 = load i32, ptr %17, align 4, !tbaa !14
  store i32 %35, ptr %14, align 4, !tbaa !14
  %36 = load i32, ptr %16, align 4, !tbaa !14
  store i32 %36, ptr %15, align 4, !tbaa !14
  br label %37

37:                                               ; preds = %34, %24
  call void @llvm.lifetime.end.p0(i64 4, ptr %17) #12
  br label %38

38:                                               ; preds = %37
  %39 = load i32, ptr %16, align 4, !tbaa !14
  %40 = add nsw i32 %39, 1
  store i32 %40, ptr %16, align 4, !tbaa !14
  br label %19, !llvm.loop !318

41:                                               ; preds = %23
  %42 = load i32, ptr %15, align 4, !tbaa !14
  %43 = icmp sge i32 %42, 0
  br i1 %43, label %44, label %50

44:                                               ; preds = %41
  %45 = load i32, ptr %15, align 4, !tbaa !14
  %46 = load ptr, ptr %13, align 8, !tbaa !20
  store i32 %45, ptr %46, align 4, !tbaa !14
  %47 = load i32, ptr %10, align 4, !tbaa !14
  %48 = load i32, ptr %14, align 4, !tbaa !14
  %49 = add nsw i32 %47, %48
  store i32 %49, ptr %7, align 4
  store i32 1, ptr %18, align 4
  br label %53

50:                                               ; preds = %41
  %51 = load i32, ptr %10, align 4, !tbaa !14
  %52 = sub nsw i32 0, %51
  store i32 %52, ptr %7, align 4
  store i32 1, ptr %18, align 4
  br label %53

53:                                               ; preds = %50, %44
  call void @llvm.lifetime.end.p0(i64 4, ptr %15) #12
  call void @llvm.lifetime.end.p0(i64 4, ptr %14) #12
  %54 = load i32, ptr %7, align 4
  ret i32 %54
}