; Function Attrs: mustprogress uwtable
define noundef i32 @_ZNK6icu_7716SimpleDateFormat21matchDayPeriodStringsERKNS_13UnicodeStringEiPS2_iRi(ptr nonnull readnone align 8 captures(none) %0, ptr noundef nonnull align 8 dereferenceable(64) %1, i32 noundef %2, ptr noundef %3, i32 noundef %4, ptr noundef nonnull writeonly align 4 captures(none) dereferenceable(4) %5) local_unnamed_addr #1 align 2 {
  %7 = icmp sgt i32 %4, 0
  br i1 %7, label %.lr.ph.preheader, label %._crit_edge.thread

.lr.ph.preheader:                                 ; preds = %6
  %wide.trip.count = zext nneg i32 %4 to i64
  br label %.lr.ph

._crit_edge:                                      ; preds = %.lr.ph
  %8 = icmp sgt i32 %spec.select21, -1
  br i1 %8, label %13, label %._crit_edge.thread

.lr.ph:                                           ; preds = %.lr.ph.preheader, %.lr.ph
  %indvars.iv = phi i64 [ 0, %.lr.ph.preheader ], [ %indvars.iv.next, %.lr.ph ]
  %.01623 = phi i32 [ -1, %.lr.ph.preheader ], [ %spec.select21, %.lr.ph ]
  %.01722 = phi i32 [ 0, %.lr.ph.preheader ], [ %spec.select, %.lr.ph ]
  %9 = getelementptr inbounds nuw %"class.icu_77::UnicodeString", ptr %3, i64 %indvars.iv
  %10 = tail call fastcc noundef i32 @_ZN6icu_77L26matchStringWithOptionalDotERKNS_13UnicodeStringEiS2_(ptr noundef nonnull align 8 dereferenceable(64) %1, i32 noundef %2, ptr noundef nonnull align 8 dereferenceable(64) %9)
  %11 = icmp sgt i32 %10, %.01722
  %spec.select = tail call i32 @llvm.smax.i32(i32 %10, i32 %.01722)
  %12 = trunc nuw nsw i64 %indvars.iv to i32
  %spec.select21 = select i1 %11, i32 %12, i32 %.01623
  %indvars.iv.next = add nuw nsw i64 %indvars.iv, 1
  %exitcond.not = icmp eq i64 %indvars.iv.next, %wide.trip.count
  br i1 %exitcond.not, label %._crit_edge, label %.lr.ph, !llvm.loop !210

13:                                               ; preds = %._crit_edge
  store i32 %spec.select21, ptr %5, align 4, !tbaa !12
  %14 = add nsw i32 %spec.select, %2
  br label %16

._crit_edge.thread:                               ; preds = %6, %._crit_edge
  %15 = sub nsw i32 0, %2
  br label %16

16:                                               ; preds = %._crit_edge.thread, %13
  %.019 = phi i32 [ %14, %13 ], [ %15, %._crit_edge.thread ]
  ret i32 %.019
}